target datalayout = "e-m:e-p270:32:32-p271:32:32-p272:64:64-i64:64-i128:128-f80:128-n8:16:32:64-S128"
target triple = "x86_64-pc-linux-gnu"

%struct.pmix_list_t = type { %struct.pmix_object_t, %struct.pmix_list_item_t, i64 }
%struct.pmix_object_t = type { %union.pthread_mutex_t, ptr, i32, %struct.pmix_tma }
%union.pthread_mutex_t = type { %struct.__pthread_mutex_s }
%struct.__pthread_mutex_s = type { i32, i32, i32, i32, i32, i16, i16, %struct.__pthread_internal_list }
%struct.__pthread_internal_list = type { ptr, ptr }
%struct.pmix_tma = type { ptr, ptr, ptr, ptr, ptr, ptr, ptr, ptr }
%struct.pmix_list_item_t = type { %struct.pmix_object_t, ptr, ptr, i32 }
%struct.prte_app_context_t = type { %struct.pmix_object_t, ptr, i32, ptr, i32, %struct.pmix_pointer_array_t, i32, i32, ptr, ptr, ptr, i8, %struct.pmix_list_t, %struct.pmix_cli_result_t }
%struct.pmix_pointer_array_t = type { %struct.pmix_object_t, i32, i32, i32, i32, i32, ptr, ptr }
%struct.pmix_cli_result_t = type { %struct.pmix_object_t, %struct.pmix_list_t, ptr }

@.str = private unnamed_addr constant [37 x i8] c"PRTE ERROR: %s in file %s at line %d\00", align 1
@.str.1 = private unnamed_addr constant [30 x i8] c"base/rmaps_base_support_fns.c\00", align 1
@.str.2 = private unnamed_addr constant [25 x i8] c"help-prte-rmaps-base.txt\00", align 1
@.str.3 = private unnamed_addr constant [31 x i8] c"prte-rmaps-base:no-mapped-node\00", align 1
@.str.4 = private unnamed_addr constant [10 x i8] c"-hostfile\00", align 1
@.str.5 = private unnamed_addr constant [6 x i8] c"-host\00", align 1

; Function Attrs: inlinehint nounwind uwtable
define internal i64 @pmix_list_get_size(ptr noundef %0) #4 {
  %2 = alloca ptr, align 8
  store ptr %0, ptr %2, align 8, !tbaa !7
  %3 = load ptr, ptr %2, align 8, !tbaa !7
  %4 = getelementptr inbounds nuw %struct.pmix_list_t, ptr %3, i32 0, i32 2
  %5 = load volatile i64, ptr %4, align 8, !tbaa !31
  ret i64 %5
}

; Function Attrs: nounwind uwtable
define i32 @prte_rmaps_base_filter_nodes(ptr noundef %0, ptr noundef %1, i1 noundef zeroext %2) #0 {
  %4 = alloca i32, align 4
  %5 = alloca ptr, align 8
  %6 = alloca ptr, align 8
  %7 = alloca i8, align 1
  %8 = alloca i32, align 4
  %9 = alloca ptr, align 8
  %10 = alloca i32, align 4
  store ptr %0, ptr %5, align 8, !tbaa !3
  store ptr %1, ptr %6, align 8, !tbaa !7
  %11 = zext i1 %2 to i8
  store i8 %11, ptr %7, align 1, !tbaa !9
  call void @llvm.lifetime.start.p0(i64 4, ptr %8) #13
  store i32 -46, ptr %8, align 4, !tbaa !11
  call void @llvm.lifetime.start.p0(i64 8, ptr %9) #13
  store ptr null, ptr %9, align 8, !tbaa !13
  %12 = load ptr, ptr %5, align 8, !tbaa !3
  %13 = getelementptr inbounds nuw %struct.prte_app_context_t, ptr %12, i32 0, i32 12
  %14 = call zeroext i1 @prte_get_attribute(ptr noundef %13, i16 noundef zeroext 1, ptr noundef %9, i16 noundef zeroext 3)
  br i1 %14, label %15, label %50

15:                                               ; preds = %3
  %16 = load ptr, ptr %9, align 8, !tbaa !13
  %17 = icmp ne ptr null, %16
  br i1 %17, label %18, label %50

18:                                               ; preds = %15
  %19 = load ptr, ptr %6, align 8, !tbaa !7
  %20 = load ptr, ptr %9, align 8, !tbaa !13
  %21 = load i8, ptr %7, align 1, !tbaa !9, !range !15, !noundef !16
  %22 = trunc i8 %21 to i1
  %23 = call i32 @prte_util_filter_hostfile_nodes(ptr noundef %19, ptr noundef %20, i1 noundef zeroext %22)
  store i32 %23, ptr %8, align 4, !tbaa !11
  %24 = icmp ne i32 0, %23
  br i1 %24, label %25, label %37

25:                                               ; preds = %18
  br label %26

26:                                               ; preds = %25
  %27 = load i32, ptr %8, align 4, !tbaa !11
  %28 = icmp ne i32 -43, %27
  br i1 %28, label %29, label %32

29:                                               ; preds = %26
  %30 = load i32, ptr %8, align 4, !tbaa !11
  %31 = call ptr @prte_strerror(i32 noundef %30)
  call void (i32, ptr, ...) @pmix_output(i32 noundef 0, ptr noundef @.str, ptr noundef %31, ptr noundef @.str.1, i32 noundef 67)
  br label %32

32:                                               ; preds = %29, %26
  br label %33

33:                                               ; preds = %32
  br label %34

34:                                               ; preds = %33
  %35 = load ptr, ptr %9, align 8, !tbaa !13
  call void @free(ptr noundef %35) #13
  %36 = load i32, ptr %8, align 4, !tbaa !11
  store i32 %36, ptr %4, align 4
  store i32 1, ptr %10, align 4
  br label %91

37:                                               ; preds = %18
  %38 = load ptr, ptr %6, align 8, !tbaa !7
  %39 = call i64 @pmix_list_get_size(ptr noundef %38)
  %40 = icmp eq i64 0, %39
  br i1 %40, label %41, label %48

41:                                               ; preds = %37
  %42 = load ptr, ptr %5, align 8, !tbaa !3
  %43 = getelementptr inbounds nuw %struct.prte_app_context_t, ptr %42, i32 0, i32 3
  %44 = load ptr, ptr %43, align 8, !tbaa !17
  %45 = load ptr, ptr %9, align 8, !tbaa !13
  %46 = call i32 (ptr, ptr, i32, ...) @pmix_show_help(ptr noundef @.str.2, ptr noundef @.str.3, i32 noundef 1, ptr noundef %44, ptr noundef @.str.4, ptr noundef %45)
  %47 = load ptr, ptr %9, align 8, !tbaa !13
  call void @free(ptr noundef %47) #13
  store i32 -43, ptr %4, align 4
  store i32 1, ptr %10, align 4
  br label %91

48:                                               ; preds = %37
  %49 = load ptr, ptr %9, align 8, !tbaa !13
  call void @free(ptr noundef %49) #13
  br label %50

50:                                               ; preds = %48, %15, %3
  store ptr null, ptr %9, align 8, !tbaa !13
  %51 = load ptr, ptr %5, align 8, !tbaa !3
  %52 = getelementptr inbounds nuw %struct.prte_app_context_t, ptr %51, i32 0, i32 12
  %53 = call zeroext i1 @prte_get_attribute(ptr noundef %52, i16 noundef zeroext 3, ptr noundef %9, i16 noundef zeroext 3)
  br i1 %53, label %54, label %89

54:                                               ; preds = %50
  %55 = load ptr, ptr %9, align 8, !tbaa !13
  %56 = icmp ne ptr null, %55
  br i1 %56, label %57, label %89

57:                                               ; preds = %54
  %58 = load ptr, ptr %6, align 8, !tbaa !7
  %59 = load ptr, ptr %9, align 8, !tbaa !13
  %60 = load i8, ptr %7, align 1, !tbaa !9, !range !15, !noundef !16
  %61 = trunc i8 %60 to i1
  %62 = call i32 @prte_util_filter_dash_host_nodes(ptr noundef %58, ptr noundef %59, i1 noundef zeroext %61)
  store i32 %62, ptr %8, align 4, !tbaa !11
  %63 = icmp ne i32 0, %62
  br i1 %63, label %64, label %76

64:                                               ; preds = %57
  br label %65

65:                                               ; preds = %64
  %66 = load i32, ptr %8, align 4, !tbaa !11
  %67 = icmp ne i32 -43, %66
  br i1 %67, label %68, label %71

68:                                               ; preds = %65
  %69 = load i32, ptr %8, align 4, !tbaa !11
  %70 = call ptr @prte_strerror(i32 noundef %69)
  call void (i32, ptr, ...) @pmix_output(i32 noundef 0, ptr noundef @.str, ptr noundef %70, ptr noundef @.str.1, i32 noundef 85)
  br label %71

71:                                               ; preds = %68, %65
  br label %72

72:                                               ; preds = %71
  br label %73

73:                                               ; preds = %72
  %74 = load ptr, ptr %9, align 8, !tbaa !13
  call void @free(ptr noundef %74) #13
  %75 = load i32, ptr %8, align 4, !tbaa !11
  store i32 %75, ptr %4, align 4
  store i32 1, ptr %10, align 4
  br label %91

76:                                               ; preds = %57
  %77 = load ptr, ptr %6, align 8, !tbaa !7
  %78 = call i64 @pmix_list_get_size(ptr noundef %77)
  %79 = icmp eq i64 0, %78
  br i1 %79, label %80, label %87

80:                                               ; preds = %76
  %81 = load ptr, ptr %5, align 8, !tbaa !3
  %82 = getelementptr inbounds nuw %struct.prte_app_context_t, ptr %81, i32 0, i32 3
  %83 = load ptr, ptr %82, align 8, !tbaa !17
  %84 = load ptr, ptr %9, align 8, !tbaa !13
  %85 = call i32 (ptr, ptr, i32, ...) @pmix_show_help(ptr noundef @.str.2, ptr noundef @.str.3, i32 noundef 1, ptr noundef %83, ptr noundef @.str.5, ptr noundef %84)
  %86 = load ptr, ptr %9, align 8, !tbaa !13
  call void @free(ptr noundef %86) #13
  store i32 -43, ptr %4, align 4
  store i32 1, ptr %10, align 4
  br label %91

87:                                               ; preds = %76
  %88 = load ptr, ptr %9, align 8, !tbaa !13
  call void @free(ptr noundef %88) #13
  br label %89

89:                                               ; preds = %87, %54, %50
  %90 = load i32, ptr %8, align 4, !tbaa !11
  store i32 %90, ptr %4, align 4
  store i32 1, ptr %10, align 4
  br label %91

91:                                               ; preds = %89, %80, %73, %41, %34
  call void @llvm.lifetime.end.p0(i64 8, ptr %9) #13
  call void @llvm.lifetime.end.p0(i64 4, ptr %8) #13
  %92 = load i32, ptr %4, align 4
  ret i32 %92
}