; Function Attrs: nounwind uwtable
define noundef i32 @prte_rmaps_base_filter_nodes(ptr noundef %0, ptr noundef %1, i1 noundef zeroext %2) local_unnamed_addr #0 {
  %4 = alloca ptr, align 8
  call void @llvm.lifetime.start.p0(i64 8, ptr nonnull %4) #11
  store ptr null, ptr %4, align 8, !tbaa !3
  %5 = getelementptr inbounds nuw i8, ptr %0, i64 352
  %6 = call zeroext i1 @prte_get_attribute(ptr noundef nonnull %5, i16 noundef zeroext 1, ptr noundef nonnull %4, i16 noundef zeroext 3) #11
  %7 = load ptr, ptr %4, align 8
  %8 = icmp ne ptr %7, null
  %or.cond = select i1 %6, i1 %8, i1 false
  br i1 %or.cond, label %9, label %24

9:                                                ; preds = %3
  %10 = call i32 @prte_util_filter_hostfile_nodes(ptr noundef %1, ptr noundef nonnull %7, i1 noundef zeroext %2) #11
  switch i32 %10, label %11 [
    i32 0, label %13
    i32 -43, label %.sink.split
  ]

11:                                               ; preds = %9
  %12 = call ptr @prte_strerror(i32 noundef %10) #11
  call void (i32, ptr, ...) @pmix_output(i32 noundef 0, ptr noundef nonnull @.str, ptr noundef %12, ptr noundef nonnull @.str.1, i32 noundef 67) #11
  br label %.sink.split

13:                                               ; preds = %9
  %14 = getelementptr inbounds nuw i8, ptr %1, i64 264
  %15 = load volatile i64, ptr %14, align 8, !tbaa !8
  %16 = icmp eq i64 %15, 0
  br i1 %16, label %17, label %22

17:                                               ; preds = %13
  %18 = getelementptr inbounds nuw i8, ptr %0, i64 136
  %19 = load ptr, ptr %18, align 8, !tbaa !17
  %20 = load ptr, ptr %4, align 8, !tbaa !3
  %21 = call i32 (ptr, ptr, i32, ...) @pmix_show_help(ptr noundef nonnull @.str.2, ptr noundef nonnull @.str.3, i32 noundef 1, ptr noundef %19, ptr noundef nonnull @.str.4, ptr noundef %20) #11
  br label %.sink.split

22:                                               ; preds = %13
  %23 = load ptr, ptr %4, align 8, !tbaa !3
  call void @free(ptr noundef %23) #11
  br label %24

24:                                               ; preds = %22, %3
  %.0 = phi i32 [ 0, %22 ], [ -46, %3 ]
  store ptr null, ptr %4, align 8, !tbaa !3
  %25 = call zeroext i1 @prte_get_attribute(ptr noundef nonnull %5, i16 noundef zeroext 3, ptr noundef nonnull %4, i16 noundef zeroext 3) #11
  %26 = load ptr, ptr %4, align 8
  %27 = icmp ne ptr %26, null
  %or.cond3 = select i1 %25, i1 %27, i1 false
  br i1 %or.cond3, label %28, label %42

28:                                               ; preds = %24
  %29 = call i32 @prte_util_filter_dash_host_nodes(ptr noundef %1, ptr noundef nonnull %26, i1 noundef zeroext %2) #11
  switch i32 %29, label %30 [
    i32 0, label %32
    i32 -43, label %.sink.split
  ]

30:                                               ; preds = %28
  %31 = call ptr @prte_strerror(i32 noundef %29) #11
  call void (i32, ptr, ...) @pmix_output(i32 noundef 0, ptr noundef nonnull @.str, ptr noundef %31, ptr noundef nonnull @.str.1, i32 noundef 85) #11
  br label %.sink.split

32:                                               ; preds = %28
  %33 = getelementptr inbounds nuw i8, ptr %1, i64 264
  %34 = load volatile i64, ptr %33, align 8, !tbaa !8
  %35 = icmp eq i64 %34, 0
  br i1 %35, label %36, label %.sink.split

36:                                               ; preds = %32
  %37 = getelementptr inbounds nuw i8, ptr %0, i64 136
  %38 = load ptr, ptr %37, align 8, !tbaa !17
  %39 = load ptr, ptr %4, align 8, !tbaa !3
  %40 = call i32 (ptr, ptr, i32, ...) @pmix_show_help(ptr noundef nonnull @.str.2, ptr noundef nonnull @.str.3, i32 noundef 1, ptr noundef %38, ptr noundef nonnull @.str.5, ptr noundef %39) #11
  br label %.sink.split

.sink.split:                                      ; preds = %32, %30, %28, %11, %9, %17, %36
  %.020.ph = phi i32 [ -43, %36 ], [ -43, %17 ], [ %10, %9 ], [ %10, %11 ], [ %29, %28 ], [ %29, %30 ], [ 0, %32 ]
  %41 = load ptr, ptr %4, align 8, !tbaa !3
  call void @free(ptr noundef %41) #11
  br label %42

42:                                               ; preds = %.sink.split, %24
  %.020 = phi i32 [ %.0, %24 ], [ %.020.ph, %.sink.split ]
  call void @llvm.lifetime.end.p0(i64 8, ptr nonnull %4) #11
  ret i32 %.020
}